target datalayout = "e-m:e-p270:32:32-p271:32:32-p272:64:64-i64:64-i128:128-f80:128-n8:16:32:64-S128"
target triple = "x86_64-pc-linux-gnu"

; Function Attrs: mustprogress nounwind uwtable
define internal noundef i32 @_ZN7lodepngL9invMatrixEPf(ptr noundef %0) #3 {
  %2 = alloca i32, align 4
  %3 = alloca ptr, align 8
  %4 = alloca i32, align 4
  %5 = alloca double, align 8
  %6 = alloca double, align 8
  %7 = alloca double, align 8
  %8 = alloca double, align 8
  %9 = alloca [9 x double], align 16
  %10 = alloca i32, align 4
  store ptr %0, ptr %3, align 8, !tbaa !87
  call void @llvm.lifetime.start.p0(i64 4, ptr %4) #19
  call void @llvm.lifetime.start.p0(i64 8, ptr %5) #19
  %11 = load ptr, ptr %3, align 8, !tbaa !87
  %12 = getelementptr inbounds float, ptr %11, i64 4
  %13 = load float, ptr %12, align 4, !tbaa !100
  %14 = fpext float %13 to double
  %15 = load ptr, ptr %3, align 8, !tbaa !87
  %16 = getelementptr inbounds float, ptr %15, i64 8
  %17 = load float, ptr %16, align 4, !tbaa !100
  %18 = fpext float %17 to double
  %19 = load ptr, ptr %3, align 8, !tbaa !87
  %20 = getelementptr inbounds float, ptr %19, i64 5
  %21 = load float, ptr %20, align 4, !tbaa !100
  %22 = fpext float %21 to double
  %23 = load ptr, ptr %3, align 8, !tbaa !87
  %24 = getelementptr inbounds float, ptr %23, i64 7
  %25 = load float, ptr %24, align 4, !tbaa !100
  %26 = fpext float %25 to double
  %27 = fmul double %22, %26
  %28 = fneg double %27
  %29 = call double @llvm.fmuladd.f64(double %14, double %18, double %28)
  store double %29, ptr %5, align 8, !tbaa !182
  call void @llvm.lifetime.start.p0(i64 8, ptr %6) #19
  %30 = load ptr, ptr %3, align 8, !tbaa !87
  %31 = getelementptr inbounds float, ptr %30, i64 5
  %32 = load float, ptr %31, align 4, !tbaa !100
  %33 = fpext float %32 to double
  %34 = load ptr, ptr %3, align 8, !tbaa !87
  %35 = getelementptr inbounds float, ptr %34, i64 6
  %36 = load float, ptr %35, align 4, !tbaa !100
  %37 = fpext float %36 to double
  %38 = load ptr, ptr %3, align 8, !tbaa !87
  %39 = getelementptr inbounds float, ptr %38, i64 3
  %40 = load float, ptr %39, align 4, !tbaa !100
  %41 = fpext float %40 to double
  %42 = load ptr, ptr %3, align 8, !tbaa !87
  %43 = getelementptr inbounds float, ptr %42, i64 8
  %44 = load float, ptr %43, align 4, !tbaa !100
  %45 = fpext float %44 to double
  %46 = fmul double %41, %45
  %47 = fneg double %46
  %48 = call double @llvm.fmuladd.f64(double %33, double %37, double %47)
  store double %48, ptr %6, align 8, !tbaa !182
  call void @llvm.lifetime.start.p0(i64 8, ptr %7) #19
  %49 = load ptr, ptr %3, align 8, !tbaa !87
  %50 = getelementptr inbounds float, ptr %49, i64 3
  %51 = load float, ptr %50, align 4, !tbaa !100
  %52 = fpext float %51 to double
  %53 = load ptr, ptr %3, align 8, !tbaa !87
  %54 = getelementptr inbounds float, ptr %53, i64 7
  %55 = load float, ptr %54, align 4, !tbaa !100
  %56 = fpext float %55 to double
  %57 = load ptr, ptr %3, align 8, !tbaa !87
  %58 = getelementptr inbounds float, ptr %57, i64 4
  %59 = load float, ptr %58, align 4, !tbaa !100
  %60 = fpext float %59 to double
  %61 = load ptr, ptr %3, align 8, !tbaa !87
  %62 = getelementptr inbounds float, ptr %61, i64 6
  %63 = load float, ptr %62, align 4, !tbaa !100
  %64 = fpext float %63 to double
  %65 = fmul double %60, %64
  %66 = fneg double %65
  %67 = call double @llvm.fmuladd.f64(double %52, double %56, double %66)
  store double %67, ptr %7, align 8, !tbaa !182
  call void @llvm.lifetime.start.p0(i64 8, ptr %8) #19
  %68 = load ptr, ptr %3, align 8, !tbaa !87
  %69 = getelementptr inbounds float, ptr %68, i64 0
  %70 = load float, ptr %69, align 4, !tbaa !100
  %71 = fpext float %70 to double
  %72 = load double, ptr %5, align 8, !tbaa !182
  %73 = load ptr, ptr %3, align 8, !tbaa !87
  %74 = getelementptr inbounds float, ptr %73, i64 1
  %75 = load float, ptr %74, align 4, !tbaa !100
  %76 = fpext float %75 to double
  %77 = load double, ptr %6, align 8, !tbaa !182
  %78 = fmul double %76, %77
  %79 = call double @llvm.fmuladd.f64(double %71, double %72, double %78)
  %80 = load ptr, ptr %3, align 8, !tbaa !87
  %81 = getelementptr inbounds float, ptr %80, i64 2
  %82 = load float, ptr %81, align 4, !tbaa !100
  %83 = fpext float %82 to double
  %84 = load double, ptr %7, align 8, !tbaa !182
  %85 = call double @llvm.fmuladd.f64(double %83, double %84, double %79)
  %86 = fdiv double 1.000000e+00, %85
  store double %86, ptr %8, align 8, !tbaa !182
  call void @llvm.lifetime.start.p0(i64 72, ptr %9) #19
  %87 = load double, ptr %8, align 8, !tbaa !182
  %88 = fcmp ogt double %87, 0.000000e+00
  br i1 %88, label %89, label %91

89:                                               ; preds = %1
  %90 = load double, ptr %8, align 8, !tbaa !182
  br label %94

91:                                               ; preds = %1
  %92 = load double, ptr %8, align 8, !tbaa !182
  %93 = fneg double %92
  br label %94

94:                                               ; preds = %91, %89
  %95 = phi double [ %90, %89 ], [ %93, %91 ]
  %96 = fcmp ogt double %95, 1.000000e+15
  br i1 %96, label %97, label %98

97:                                               ; preds = %94
  store i32 1, ptr %2, align 4
  store i32 1, ptr %10, align 4
  br label %260

98:                                               ; preds = %94
  %99 = load double, ptr %5, align 8, !tbaa !182
  %100 = load double, ptr %8, align 8, !tbaa !182
  %101 = fmul double %99, %100
  %102 = getelementptr inbounds [9 x double], ptr %9, i64 0, i64 0
  store double %101, ptr %102, align 16, !tbaa !182
  %103 = load ptr, ptr %3, align 8, !tbaa !87
  %104 = getelementptr inbounds float, ptr %103, i64 2
  %105 = load float, ptr %104, align 4, !tbaa !100
  %106 = fpext float %105 to double
  %107 = load ptr, ptr %3, align 8, !tbaa !87
  %108 = getelementptr inbounds float, ptr %107, i64 7
  %109 = load float, ptr %108, align 4, !tbaa !100
  %110 = fpext float %109 to double
  %111 = load ptr, ptr %3, align 8, !tbaa !87
  %112 = getelementptr inbounds float, ptr %111, i64 1
  %113 = load float, ptr %112, align 4, !tbaa !100
  %114 = fpext float %113 to double
  %115 = load ptr, ptr %3, align 8, !tbaa !87
  %116 = getelementptr inbounds float, ptr %115, i64 8
  %117 = load float, ptr %116, align 4, !tbaa !100
  %118 = fpext float %117 to double
  %119 = fmul double %114, %118
  %120 = fneg double %119
  %121 = call double @llvm.fmuladd.f64(double %106, double %110, double %120)
  %122 = load double, ptr %8, align 8, !tbaa !182
  %123 = fmul double %121, %122
  %124 = getelementptr inbounds [9 x double], ptr %9, i64 0, i64 1
  store double %123, ptr %124, align 8, !tbaa !182
  %125 = load ptr, ptr %3, align 8, !tbaa !87
  %126 = getelementptr inbounds float, ptr %125, i64 1
  %127 = load float, ptr %126, align 4, !tbaa !100
  %128 = fpext float %127 to double
  %129 = load ptr, ptr %3, align 8, !tbaa !87
  %130 = getelementptr inbounds float, ptr %129, i64 5
  %131 = load float, ptr %130, align 4, !tbaa !100
  %132 = fpext float %131 to double
  %133 = load ptr, ptr %3, align 8, !tbaa !87
  %134 = getelementptr inbounds float, ptr %133, i64 2
  %135 = load float, ptr %134, align 4, !tbaa !100
  %136 = fpext float %135 to double
  %137 = load ptr, ptr %3, align 8, !tbaa !87
  %138 = getelementptr inbounds float, ptr %137, i64 4
  %139 = load float, ptr %138, align 4, !tbaa !100
  %140 = fpext float %139 to double
  %141 = fmul double %136, %140
  %142 = fneg double %141
  %143 = call double @llvm.fmuladd.f64(double %128, double %132, double %142)
  %144 = load double, ptr %8, align 8, !tbaa !182
  %145 = fmul double %143, %144
  %146 = getelementptr inbounds [9 x double], ptr %9, i64 0, i64 2
  store double %145, ptr %146, align 16, !tbaa !182
  %147 = load double, ptr %6, align 8, !tbaa !182
  %148 = load double, ptr %8, align 8, !tbaa !182
  %149 = fmul double %147, %148
  %150 = getelementptr inbounds [9 x double], ptr %9, i64 0, i64 3
  store double %149, ptr %150, align 8, !tbaa !182
  %151 = load ptr, ptr %3, align 8, !tbaa !87
  %152 = getelementptr inbounds float, ptr %151, i64 0
  %153 = load float, ptr %152, align 4, !tbaa !100
  %154 = fpext float %153 to double
  %155 = load ptr, ptr %3, align 8, !tbaa !87
  %156 = getelementptr inbounds float, ptr %155, i64 8
  %157 = load float, ptr %156, align 4, !tbaa !100
  %158 = fpext float %157 to double
  %159 = load ptr, ptr %3, align 8, !tbaa !87
  %160 = getelementptr inbounds float, ptr %159, i64 2
  %161 = load float, ptr %160, align 4, !tbaa !100
  %162 = fpext float %161 to double
  %163 = load ptr, ptr %3, align 8, !tbaa !87
  %164 = getelementptr inbounds float, ptr %163, i64 6
  %165 = load float, ptr %164, align 4, !tbaa !100
  %166 = fpext float %165 to double
  %167 = fmul double %162, %166
  %168 = fneg double %167
  %169 = call double @llvm.fmuladd.f64(double %154, double %158, double %168)
  %170 = load double, ptr %8, align 8, !tbaa !182
  %171 = fmul double %169, %170
  %172 = getelementptr inbounds [9 x double], ptr %9, i64 0, i64 4
  store double %171, ptr %172, align 16, !tbaa !182
  %173 = load ptr, ptr %3, align 8, !tbaa !87
  %174 = getelementptr inbounds float, ptr %173, i64 3
  %175 = load float, ptr %174, align 4, !tbaa !100
  %176 = fpext float %175 to double
  %177 = load ptr, ptr %3, align 8, !tbaa !87
  %178 = getelementptr inbounds float, ptr %177, i64 2
  %179 = load float, ptr %178, align 4, !tbaa !100
  %180 = fpext float %179 to double
  %181 = load ptr, ptr %3, align 8, !tbaa !87
  %182 = getelementptr inbounds float, ptr %181, i64 0
  %183 = load float, ptr %182, align 4, !tbaa !100
  %184 = fpext float %183 to double
  %185 = load ptr, ptr %3, align 8, !tbaa !87
  %186 = getelementptr inbounds float, ptr %185, i64 5
  %187 = load float, ptr %186, align 4, !tbaa !100
  %188 = fpext float %187 to double
  %189 = fmul double %184, %188
  %190 = fneg double %189
  %191 = call double @llvm.fmuladd.f64(double %176, double %180, double %190)
  %192 = load double, ptr %8, align 8, !tbaa !182
  %193 = fmul double %191, %192
  %194 = getelementptr inbounds [9 x double], ptr %9, i64 0, i64 5
  store double %193, ptr %194, align 8, !tbaa !182
  %195 = load double, ptr %7, align 8, !tbaa !182
  %196 = load double, ptr %8, align 8, !tbaa !182
  %197 = fmul double %195, %196
  %198 = getelementptr inbounds [9 x double], ptr %9, i64 0, i64 6
  store double %197, ptr %198, align 16, !tbaa !182
  %199 = load ptr, ptr %3, align 8, !tbaa !87
  %200 = getelementptr inbounds float, ptr %199, i64 6
  %201 = load float, ptr %200, align 4, !tbaa !100
  %202 = fpext float %201 to double
  %203 = load ptr, ptr %3, align 8, !tbaa !87
  %204 = getelementptr inbounds float, ptr %203, i64 1
  %205 = load float, ptr %204, align 4, !tbaa !100
  %206 = fpext float %205 to double
  %207 = load ptr, ptr %3, align 8, !tbaa !87
  %208 = getelementptr inbounds float, ptr %207, i64 0
  %209 = load float, ptr %208, align 4, !tbaa !100
  %210 = fpext float %209 to double
  %211 = load ptr, ptr %3, align 8, !tbaa !87
  %212 = getelementptr inbounds float, ptr %211, i64 7
  %213 = load float, ptr %212, align 4, !tbaa !100
  %214 = fpext float %213 to double
  %215 = fmul double %210, %214
  %216 = fneg double %215
  %217 = call double @llvm.fmuladd.f64(double %202, double %206, double %216)
  %218 = load double, ptr %8, align 8, !tbaa !182
  %219 = fmul double %217, %218
  %220 = getelementptr inbounds [9 x double], ptr %9, i64 0, i64 7
  store double %219, ptr %220, align 8, !tbaa !182
  %221 = load ptr, ptr %3, align 8, !tbaa !87
  %222 = getelementptr inbounds float, ptr %221, i64 0
  %223 = load float, ptr %222, align 4, !tbaa !100
  %224 = fpext float %223 to double
  %225 = load ptr, ptr %3, align 8, !tbaa !87
  %226 = getelementptr inbounds float, ptr %225, i64 4
  %227 = load float, ptr %226, align 4, !tbaa !100
  %228 = fpext float %227 to double
  %229 = load ptr, ptr %3, align 8, !tbaa !87
  %230 = getelementptr inbounds float, ptr %229, i64 3
  %231 = load float, ptr %230, align 4, !tbaa !100
  %232 = fpext float %231 to double
  %233 = load ptr, ptr %3, align 8, !tbaa !87
  %234 = getelementptr inbounds float, ptr %233, i64 1
  %235 = load float, ptr %234, align 4, !tbaa !100
  %236 = fpext float %235 to double
  %237 = fmul double %232, %236
  %238 = fneg double %237
  %239 = call double @llvm.fmuladd.f64(double %224, double %228, double %238)
  %240 = load double, ptr %8, align 8, !tbaa !182
  %241 = fmul double %239, %240
  %242 = getelementptr inbounds [9 x double], ptr %9, i64 0, i64 8
  store double %241, ptr %242, align 16, !tbaa !182
  store i32 0, ptr %4, align 4, !tbaa !9
  br label %243

243:                                              ; preds = %256, %98
  %244 = load i32, ptr %4, align 4, !tbaa !9
  %245 = icmp slt i32 %244, 9
  br i1 %245, label %246, label %259

246:                                              ; preds = %243
  %247 = load i32, ptr %4, align 4, !tbaa !9
  %248 = sext i32 %247 to i64
  %249 = getelementptr inbounds [9 x double], ptr %9, i64 0, i64 %248
  %250 = load double, ptr %249, align 8, !tbaa !182
  %251 = fptrunc double %250 to float
  %252 = load ptr, ptr %3, align 8, !tbaa !87
  %253 = load i32, ptr %4, align 4, !tbaa !9
  %254 = sext i32 %253 to i64
  %255 = getelementptr inbounds float, ptr %252, i64 %254
  store float %251, ptr %255, align 4, !tbaa !100
  br label %256

256:                                              ; preds = %246
  %257 = load i32, ptr %4, align 4, !tbaa !9
  %258 = add nsw i32 %257, 1
  store i32 %258, ptr %4, align 4, !tbaa !9
  br label %243, !llvm.loop !186

259:                                              ; preds = %243
  store i32 0, ptr %2, align 4
  store i32 1, ptr %10, align 4
  br label %260

260:                                              ; preds = %259, %97
  call void @llvm.lifetime.end.p0(i64 72, ptr %9) #19
  call void @llvm.lifetime.end.p0(i64 8, ptr %8) #19
  call void @llvm.lifetime.end.p0(i64 8, ptr %7) #19
  call void @llvm.lifetime.end.p0(i64 8, ptr %6) #19
  call void @llvm.lifetime.end.p0(i64 8, ptr %5) #19
  call void @llvm.lifetime.end.p0(i64 4, ptr %4) #19
  %261 = load i32, ptr %2, align 4
  ret i32 %261
}