; Function Attrs: mustprogress nofree norecurse nosync nounwind memory(argmem: readwrite) uwtable
define internal fastcc noundef range(i32 0, 2) i32 @_ZN7lodepngL9invMatrixEPf(ptr noundef nonnull captures(none) %0) unnamed_addr #11 {
  %2 = alloca [9 x double], align 16
  %3 = getelementptr inbounds nuw i8, ptr %0, i64 16
  %4 = load float, ptr %3, align 4, !tbaa !79
  %5 = fpext float %4 to double
  %6 = getelementptr inbounds nuw i8, ptr %0, i64 32
  %7 = load float, ptr %6, align 4, !tbaa !79
  %8 = fpext float %7 to double
  %9 = getelementptr inbounds nuw i8, ptr %0, i64 20
  %10 = load float, ptr %9, align 4, !tbaa !79
  %11 = fpext float %10 to double
  %12 = getelementptr inbounds nuw i8, ptr %0, i64 28
  %13 = load float, ptr %12, align 4, !tbaa !79
  %14 = fpext float %13 to double
  %15 = fneg double %14
  %16 = fmul double %11, %15
  %17 = tail call double @llvm.fmuladd.f64(double %5, double %8, double %16)
  %18 = getelementptr inbounds nuw i8, ptr %0, i64 24
  %19 = load float, ptr %18, align 4, !tbaa !79
  %20 = fpext float %19 to double
  %21 = getelementptr inbounds nuw i8, ptr %0, i64 12
  %22 = load float, ptr %21, align 4, !tbaa !79
  %23 = fpext float %22 to double
  %24 = fneg double %8
  %25 = fmul double %24, %23
  %26 = tail call double @llvm.fmuladd.f64(double %11, double %20, double %25)
  %27 = fneg double %20
  %28 = fmul double %5, %27
  %29 = tail call double @llvm.fmuladd.f64(double %23, double %14, double %28)
  %30 = load float, ptr %0, align 4, !tbaa !79
  %31 = fpext float %30 to double
  %32 = getelementptr inbounds nuw i8, ptr %0, i64 4
  %33 = load float, ptr %32, align 4, !tbaa !79
  %34 = fpext float %33 to double
  %35 = fmul double %26, %34
  %36 = tail call double @llvm.fmuladd.f64(double %31, double %17, double %35)
  %37 = getelementptr inbounds nuw i8, ptr %0, i64 8
  %38 = load float, ptr %37, align 4, !tbaa !79
  %39 = fpext float %38 to double
  %40 = tail call double @llvm.fmuladd.f64(double %39, double %29, double %36)
  %41 = fdiv double 1.000000e+00, %40
  call void @llvm.lifetime.start.p0(i64 72, ptr nonnull %2) #27
  %42 = fcmp ogt double %41, 0.000000e+00
  %43 = fneg double %41
  %44 = select i1 %42, double %41, double %43
  %45 = fcmp ogt double %44, 1.000000e+15
  br i1 %45, label %.loopexit, label %46

46:                                               ; preds = %1
  %47 = fmul double %17, %41
  store double %47, ptr %2, align 16, !tbaa !142
  %48 = fmul double %24, %34
  %49 = tail call double @llvm.fmuladd.f64(double %39, double %14, double %48)
  %50 = fmul double %49, %41
  %51 = getelementptr inbounds nuw i8, ptr %2, i64 8
  store double %50, ptr %51, align 8, !tbaa !142
  %52 = fneg double %5
  %53 = fmul double %52, %39
  %54 = tail call double @llvm.fmuladd.f64(double %34, double %11, double %53)
  %55 = fmul double %54, %41
  %56 = getelementptr inbounds nuw i8, ptr %2, i64 16
  store double %55, ptr %56, align 16, !tbaa !142
  %57 = fmul double %26, %41
  %58 = getelementptr inbounds nuw i8, ptr %2, i64 24
  store double %57, ptr %58, align 8, !tbaa !142
  %59 = fmul double %27, %39
  %60 = tail call double @llvm.fmuladd.f64(double %31, double %8, double %59)
  %61 = fmul double %60, %41
  %62 = getelementptr inbounds nuw i8, ptr %2, i64 32
  store double %61, ptr %62, align 16, !tbaa !142
  %63 = fneg double %11
  %64 = fmul double %63, %31
  %65 = tail call double @llvm.fmuladd.f64(double %23, double %39, double %64)
  %66 = fmul double %65, %41
  %67 = getelementptr inbounds nuw i8, ptr %2, i64 40
  store double %66, ptr %67, align 8, !tbaa !142
  %68 = fmul double %29, %41
  %69 = getelementptr inbounds nuw i8, ptr %2, i64 48
  store double %68, ptr %69, align 16, !tbaa !142
  %70 = fmul double %15, %31
  %71 = tail call double @llvm.fmuladd.f64(double %20, double %34, double %70)
  %72 = fmul double %71, %41
  %73 = getelementptr inbounds nuw i8, ptr %2, i64 56
  store double %72, ptr %73, align 8, !tbaa !142
  %74 = fneg double %34
  %75 = fmul double %23, %74
  %76 = tail call double @llvm.fmuladd.f64(double %31, double %5, double %75)
  %77 = fmul double %76, %41
  %78 = getelementptr inbounds nuw i8, ptr %2, i64 64
  store double %77, ptr %78, align 16, !tbaa !142
  br label %79

79:                                               ; preds = %46, %79
  %indvars.iv = phi i64 [ 0, %46 ], [ %indvars.iv.next, %79 ]
  %80 = getelementptr inbounds nuw [9 x double], ptr %2, i64 0, i64 %indvars.iv
  %81 = load double, ptr %80, align 8, !tbaa !142
  %82 = fptrunc double %81 to float
  %83 = getelementptr inbounds nuw float, ptr %0, i64 %indvars.iv
  store float %82, ptr %83, align 4, !tbaa !79
  %indvars.iv.next = add nuw nsw i64 %indvars.iv, 1
  %exitcond.not = icmp eq i64 %indvars.iv.next, 9
  br i1 %exitcond.not, label %.loopexit, label %79, !llvm.loop !144

.loopexit:                                        ; preds = %79, %1
  %.0 = phi i32 [ 1, %1 ], [ 0, %79 ]
  call void @llvm.lifetime.end.p0(i64 72, ptr nonnull %2) #27
  ret i32 %.0
}